; Function Attrs: nounwind uwtable
define nonnull ptr @l_Array_mapMUnsafe_map___at_Lean_Widget_diffInteractiveGoals___spec__3___lambda__1___boxed(ptr noundef %0, ptr noundef %1, ptr noundef %2, ptr noundef %3) #0 {
  %5 = ptrtoint ptr %0 to i64
  %6 = lshr i64 %5, 1
  %7 = trunc i64 %6 to i8
  %8 = and i64 %5, 1
  %.not = icmp eq i64 %8, 0
  br i1 %.not, label %9, label %lean_dec.exit12

9:                                                ; preds = %4
  %10 = load i32, ptr %0, align 4, !tbaa !8
  %11 = icmp sgt i32 %10, 1
  br i1 %11, label %12, label %14, !prof !11

12:                                               ; preds = %9
  %13 = add nsw i32 %10, -1
  store i32 %13, ptr %0, align 4, !tbaa !8
  br label %lean_dec.exit12

14:                                               ; preds = %9
  %.not.i = icmp eq i32 %10, 0
  br i1 %.not.i, label %lean_dec.exit12, label %15

15:                                               ; preds = %14
  tail call void @lean_dec_ref_cold(ptr noundef nonnull %0) #7
  br label %lean_dec.exit12

lean_dec.exit12:                                  ; preds = %15, %14, %12, %4
  %16 = tail call zeroext i8 @l_Array_mapMUnsafe_map___at_Lean_Widget_diffInteractiveGoals___spec__3___lambda__1(i8 noundef zeroext %7, ptr noundef %1, ptr noundef %2, ptr noundef %3)
  %17 = ptrtoint ptr %3 to i64
  %18 = and i64 %17, 1
  %.not19 = icmp eq i64 %18, 0
  br i1 %.not19, label %19, label %lean_dec.exit11

19:                                               ; preds = %lean_dec.exit12
  %20 = load i32, ptr %3, align 4, !tbaa !8
  %21 = icmp sgt i32 %20, 1
  br i1 %21, label %22, label %24, !prof !11

22:                                               ; preds = %19
  %23 = add nsw i32 %20, -1
  store i32 %23, ptr %3, align 4, !tbaa !8
  br label %lean_dec.exit11

24:                                               ; preds = %19
  %.not.i13 = icmp eq i32 %20, 0
  br i1 %.not.i13, label %lean_dec.exit11, label %25

25:                                               ; preds = %24
  tail call void @lean_dec_ref_cold(ptr noundef nonnull %3) #7
  br label %lean_dec.exit11

lean_dec.exit11:                                  ; preds = %25, %24, %22, %lean_dec.exit12
  %26 = ptrtoint ptr %2 to i64
  %27 = and i64 %26, 1
  %.not20 = icmp eq i64 %27, 0
  br i1 %.not20, label %28, label %lean_dec.exit10

28:                                               ; preds = %lean_dec.exit11
  %29 = load i32, ptr %2, align 4, !tbaa !8
  %30 = icmp sgt i32 %29, 1
  br i1 %30, label %31, label %33, !prof !11

31:                                               ; preds = %28
  %32 = add nsw i32 %29, -1
  store i32 %32, ptr %2, align 4, !tbaa !8
  br label %lean_dec.exit10

33:                                               ; preds = %28
  %.not.i15 = icmp eq i32 %29, 0
  br i1 %.not.i15, label %lean_dec.exit10, label %34

34:                                               ; preds = %33
  tail call void @lean_dec_ref_cold(ptr noundef nonnull %2) #7
  br label %lean_dec.exit10

lean_dec.exit10:                                  ; preds = %34, %33, %31, %lean_dec.exit11
  %35 = ptrtoint ptr %1 to i64
  %36 = and i64 %35, 1
  %.not21 = icmp eq i64 %36, 0
  br i1 %.not21, label %37, label %lean_dec.exit

37:                                               ; preds = %lean_dec.exit10
  %38 = load i32, ptr %1, align 4, !tbaa !8
  %39 = icmp sgt i32 %38, 1
  br i1 %39, label %40, label %42, !prof !11

40:                                               ; preds = %37
  %41 = add nsw i32 %38, -1
  store i32 %41, ptr %1, align 4, !tbaa !8
  br label %lean_dec.exit

42:                                               ; preds = %37
  %.not.i17 = icmp eq i32 %38, 0
  br i1 %.not.i17, label %lean_dec.exit, label %43

43:                                               ; preds = %42
  tail call void @lean_dec_ref_cold(ptr noundef nonnull %1) #7
  br label %lean_dec.exit

lean_dec.exit:                                    ; preds = %43, %42, %40, %lean_dec.exit10
  %44 = shl nuw nsw i8 %16, 1
  %45 = or disjoint i8 %44, 1
  %46 = zext nneg i8 %45 to i64
  %47 = inttoptr i64 %46 to ptr
  ret ptr %47
}